target datalayout = "e-m:e-p270:32:32-p271:32:32-p272:64:64-i64:64-i128:128-f80:128-n8:16:32:64-S128"
target triple = "x86_64-pc-linux-gnu"

@Truth6 = internal global [6 x i64] [i64 -6148914691236517206, i64 -3689348814741910324, i64 -1085102592571150096, i64 -71777214294589696, i64 -281470681808896, i64 -4294967296], align 16

; Function Attrs: inlinehint nounwind uwtable
define internal i32 @If_Dec08HasVar(ptr noundef %0, i32 noundef %1, i32 noundef %2) #2 {
  %4 = alloca i32, align 4
  %5 = alloca ptr, align 8
  %6 = alloca i32, align 4
  %7 = alloca i32, align 4
  %8 = alloca i32, align 4
  %9 = alloca i32, align 4
  %10 = alloca i32, align 4
  %11 = alloca i32, align 4
  %12 = alloca i32, align 4
  %13 = alloca i32, align 4
  %14 = alloca i32, align 4
  store ptr %0, ptr %5, align 8, !tbaa !14
  store i32 %1, ptr %6, align 4, !tbaa !8
  store i32 %2, ptr %7, align 4, !tbaa !8
  call void @llvm.lifetime.start.p0(i64 4, ptr %8) #5
  %15 = load i32, ptr %6, align 4, !tbaa !8
  %16 = call i32 @If_Dec08WordNum(i32 noundef %15)
  store i32 %16, ptr %8, align 4, !tbaa !8
  %17 = load i32, ptr %7, align 4, !tbaa !8
  %18 = icmp slt i32 %17, 6
  br i1 %18, label %19, label %59

19:                                               ; preds = %3
  call void @llvm.lifetime.start.p0(i64 4, ptr %9) #5
  call void @llvm.lifetime.start.p0(i64 4, ptr %10) #5
  %20 = load i32, ptr %7, align 4, !tbaa !8
  %21 = shl i32 1, %20
  store i32 %21, ptr %10, align 4, !tbaa !8
  store i32 0, ptr %9, align 4, !tbaa !8
  br label %22

22:                                               ; preds = %54, %19
  %23 = load i32, ptr %9, align 4, !tbaa !8
  %24 = load i32, ptr %8, align 4, !tbaa !8
  %25 = icmp slt i32 %23, %24
  br i1 %25, label %26, label %57

26:                                               ; preds = %22
  %27 = load ptr, ptr %5, align 8, !tbaa !14
  %28 = load i32, ptr %9, align 4, !tbaa !8
  %29 = sext i32 %28 to i64
  %30 = getelementptr inbounds i64, ptr %27, i64 %29
  %31 = load i64, ptr %30, align 8, !tbaa !16
  %32 = load i32, ptr %7, align 4, !tbaa !8
  %33 = sext i32 %32 to i64
  %34 = getelementptr inbounds [6 x i64], ptr @Truth6, i64 0, i64 %33
  %35 = load i64, ptr %34, align 8, !tbaa !16
  %36 = xor i64 %35, -1
  %37 = and i64 %31, %36
  %38 = load ptr, ptr %5, align 8, !tbaa !14
  %39 = load i32, ptr %9, align 4, !tbaa !8
  %40 = sext i32 %39 to i64
  %41 = getelementptr inbounds i64, ptr %38, i64 %40
  %42 = load i64, ptr %41, align 8, !tbaa !16
  %43 = load i32, ptr %7, align 4, !tbaa !8
  %44 = sext i32 %43 to i64
  %45 = getelementptr inbounds [6 x i64], ptr @Truth6, i64 0, i64 %44
  %46 = load i64, ptr %45, align 8, !tbaa !16
  %47 = and i64 %42, %46
  %48 = load i32, ptr %10, align 4, !tbaa !8
  %49 = zext i32 %48 to i64
  %50 = lshr i64 %47, %49
  %51 = icmp ne i64 %37, %50
  br i1 %51, label %52, label %53

52:                                               ; preds = %26
  store i32 1, ptr %4, align 4
  store i32 1, ptr %11, align 4
  br label %58

53:                                               ; preds = %26
  br label %54

54:                                               ; preds = %53
  %55 = load i32, ptr %9, align 4, !tbaa !8
  %56 = add nsw i32 %55, 1
  store i32 %56, ptr %9, align 4, !tbaa !8
  br label %22, !llvm.loop !59

57:                                               ; preds = %22
  store i32 0, ptr %4, align 4
  store i32 1, ptr %11, align 4
  br label %58

58:                                               ; preds = %57, %52
  call void @llvm.lifetime.end.p0(i64 4, ptr %10) #5
  call void @llvm.lifetime.end.p0(i64 4, ptr %9) #5
  br label %104

59:                                               ; preds = %3
  call void @llvm.lifetime.start.p0(i64 4, ptr %12) #5
  call void @llvm.lifetime.start.p0(i64 4, ptr %13) #5
  call void @llvm.lifetime.start.p0(i64 4, ptr %14) #5
  %60 = load i32, ptr %7, align 4, !tbaa !8
  %61 = sub nsw i32 %60, 6
  %62 = shl i32 1, %61
  store i32 %62, ptr %14, align 4, !tbaa !8
  store i32 0, ptr %13, align 4, !tbaa !8
  br label %63

63:                                               ; preds = %97, %59
  %64 = load i32, ptr %13, align 4, !tbaa !8
  %65 = load i32, ptr %8, align 4, !tbaa !8
  %66 = icmp slt i32 %64, %65
  br i1 %66, label %67, label %102

67:                                               ; preds = %63
  store i32 0, ptr %12, align 4, !tbaa !8
  br label %68

68:                                               ; preds = %88, %67
  %69 = load i32, ptr %12, align 4, !tbaa !8
  %70 = load i32, ptr %14, align 4, !tbaa !8
  %71 = icmp slt i32 %69, %70
  br i1 %71, label %72, label %91

72:                                               ; preds = %68
  %73 = load ptr, ptr %5, align 8, !tbaa !14
  %74 = load i32, ptr %12, align 4, !tbaa !8
  %75 = sext i32 %74 to i64
  %76 = getelementptr inbounds i64, ptr %73, i64 %75
  %77 = load i64, ptr %76, align 8, !tbaa !16
  %78 = load ptr, ptr %5, align 8, !tbaa !14
  %79 = load i32, ptr %14, align 4, !tbaa !8
  %80 = load i32, ptr %12, align 4, !tbaa !8
  %81 = add nsw i32 %79, %80
  %82 = sext i32 %81 to i64
  %83 = getelementptr inbounds i64, ptr %78, i64 %82
  %84 = load i64, ptr %83, align 8, !tbaa !16
  %85 = icmp ne i64 %77, %84
  br i1 %85, label %86, label %87

86:                                               ; preds = %72
  store i32 1, ptr %4, align 4
  store i32 1, ptr %11, align 4
  br label %103

87:                                               ; preds = %72
  br label %88

88:                                               ; preds = %87
  %89 = load i32, ptr %12, align 4, !tbaa !8
  %90 = add nsw i32 %89, 1
  store i32 %90, ptr %12, align 4, !tbaa !8
  br label %68, !llvm.loop !60

91:                                               ; preds = %68
  %92 = load i32, ptr %14, align 4, !tbaa !8
  %93 = mul nsw i32 2, %92
  %94 = load ptr, ptr %5, align 8, !tbaa !14
  %95 = sext i32 %93 to i64
  %96 = getelementptr inbounds i64, ptr %94, i64 %95
  store ptr %96, ptr %5, align 8, !tbaa !14
  br label %97

97:                                               ; preds = %91
  %98 = load i32, ptr %14, align 4, !tbaa !8
  %99 = mul nsw i32 2, %98
  %100 = load i32, ptr %13, align 4, !tbaa !8
  %101 = add nsw i32 %100, %99
  store i32 %101, ptr %13, align 4, !tbaa !8
  br label %63, !llvm.loop !61

102:                                              ; preds = %63
  store i32 0, ptr %4, align 4
  store i32 1, ptr %11, align 4
  br label %103

103:                                              ; preds = %102, %86
  call void @llvm.lifetime.end.p0(i64 4, ptr %14) #5
  call void @llvm.lifetime.end.p0(i64 4, ptr %13) #5
  call void @llvm.lifetime.end.p0(i64 4, ptr %12) #5
  br label %104

104:                                              ; preds = %103, %58
  call void @llvm.lifetime.end.p0(i64 4, ptr %8) #5
  %105 = load i32, ptr %4, align 4
  ret i32 %105
}

; Function Attrs: inlinehint nounwind uwtable
define internal i32 @If_Dec08WordNum(i32 noundef %0) #2 {
  %2 = alloca i32, align 4
  store i32 %0, ptr %2, align 4, !tbaa !8
  %3 = load i32, ptr %2, align 4, !tbaa !8
  %4 = icmp sle i32 %3, 6
  br i1 %4, label %5, label %6

5:                                                ; preds = %1
  br label %10

6:                                                ; preds = %1
  %7 = load i32, ptr %2, align 4, !tbaa !8
  %8 = sub nsw i32 %7, 6
  %9 = shl i32 1, %8
  br label %10

10:                                               ; preds = %6, %5
  %11 = phi i32 [ 1, %5 ], [ %9, %6 ]
  ret i32 %11
}

; Function Attrs: inlinehint nounwind uwtable
define internal i32 @If_DecSuppIsMinBase(i32 noundef %0) #2 {
  %2 = alloca i32, align 4
  store i32 %0, ptr %2, align 4, !tbaa !8
  %3 = load i32, ptr %2, align 4, !tbaa !8
  %4 = load i32, ptr %2, align 4, !tbaa !8
  %5 = add nsw i32 %4, 1
  %6 = and i32 %3, %5
  %7 = icmp eq i32 %6, 0
  %8 = zext i1 %7 to i32
  ret i32 %8
}

; Function Attrs: inlinehint nounwind uwtable
define internal i32 @If_Dec08Support(ptr noundef %0, i32 noundef %1) #2 {
  %3 = alloca ptr, align 8
  %4 = alloca i32, align 4
  %5 = alloca i32, align 4
  %6 = alloca i32, align 4
  store ptr %0, ptr %3, align 8, !tbaa !14
  store i32 %1, ptr %4, align 4, !tbaa !8
  call void @llvm.lifetime.start.p0(i64 4, ptr %5) #5
  call void @llvm.lifetime.start.p0(i64 4, ptr %6) #5
  store i32 0, ptr %6, align 4, !tbaa !8
  store i32 0, ptr %5, align 4, !tbaa !8
  br label %7

7:                                                ; preds = %23, %2
  %8 = load i32, ptr %5, align 4, !tbaa !8
  %9 = load i32, ptr %4, align 4, !tbaa !8
  %10 = icmp slt i32 %8, %9
  br i1 %10, label %11, label %26

11:                                               ; preds = %7
  %12 = load ptr, ptr %3, align 8, !tbaa !14
  %13 = load i32, ptr %4, align 4, !tbaa !8
  %14 = load i32, ptr %5, align 4, !tbaa !8
  %15 = call i32 @If_Dec08HasVar(ptr noundef %12, i32 noundef %13, i32 noundef %14)
  %16 = icmp ne i32 %15, 0
  br i1 %16, label %17, label %22

17:                                               ; preds = %11
  %18 = load i32, ptr %5, align 4, !tbaa !8
  %19 = shl i32 1, %18
  %20 = load i32, ptr %6, align 4, !tbaa !8
  %21 = or i32 %20, %19
  store i32 %21, ptr %6, align 4, !tbaa !8
  br label %22

22:                                               ; preds = %17, %11
  br label %23

23:                                               ; preds = %22
  %24 = load i32, ptr %5, align 4, !tbaa !8
  %25 = add nsw i32 %24, 1
  store i32 %25, ptr %5, align 4, !tbaa !8
  br label %7, !llvm.loop !51

26:                                               ; preds = %7
  %27 = load i32, ptr %6, align 4, !tbaa !8
  call void @llvm.lifetime.end.p0(i64 4, ptr %6) #5
  call void @llvm.lifetime.end.p0(i64 4, ptr %5) #5
  ret i32 %27
}

; Function Attrs: inlinehint nounwind uwtable
define internal void @If_Dec08Copy(ptr noundef %0, ptr noundef %1, i32 noundef %2) #2 {
  %4 = alloca ptr, align 8
  %5 = alloca ptr, align 8
  %6 = alloca i32, align 4
  %7 = alloca i32, align 4
  %8 = alloca i32, align 4
  store ptr %0, ptr %4, align 8, !tbaa !14
  store ptr %1, ptr %5, align 8, !tbaa !14
  store i32 %2, ptr %6, align 4, !tbaa !8
  call void @llvm.lifetime.start.p0(i64 4, ptr %7) #5
  call void @llvm.lifetime.start.p0(i64 4, ptr %8) #5
  %9 = load i32, ptr %6, align 4, !tbaa !8
  %10 = call i32 @If_Dec08WordNum(i32 noundef %9)
  store i32 %10, ptr %8, align 4, !tbaa !8
  store i32 0, ptr %7, align 4, !tbaa !8
  br label %11

11:                                               ; preds = %25, %3
  %12 = load i32, ptr %7, align 4, !tbaa !8
  %13 = load i32, ptr %8, align 4, !tbaa !8
  %14 = icmp slt i32 %12, %13
  br i1 %14, label %15, label %28

15:                                               ; preds = %11
  %16 = load ptr, ptr %5, align 8, !tbaa !14
  %17 = load i32, ptr %7, align 4, !tbaa !8
  %18 = sext i32 %17 to i64
  %19 = getelementptr inbounds i64, ptr %16, i64 %18
  %20 = load i64, ptr %19, align 8, !tbaa !16
  %21 = load ptr, ptr %4, align 8, !tbaa !14
  %22 = load i32, ptr %7, align 4, !tbaa !8
  %23 = sext i32 %22 to i64
  %24 = getelementptr inbounds i64, ptr %21, i64 %23
  store i64 %20, ptr %24, align 8, !tbaa !16
  br label %25

25:                                               ; preds = %15
  %26 = load i32, ptr %7, align 4, !tbaa !8
  %27 = add nsw i32 %26, 1
  store i32 %27, ptr %7, align 4, !tbaa !8
  br label %11, !llvm.loop !50

28:                                               ; preds = %11
  call void @llvm.lifetime.end.p0(i64 4, ptr %8) #5
  call void @llvm.lifetime.end.p0(i64 4, ptr %7) #5
  ret void
}

; Function Attrs: nounwind uwtable
define i32 @If_CutPerformCheck08(ptr noundef %0, ptr noundef %1, i32 noundef %2, i32 noundef %3, ptr noundef %4) #0 {
  %6 = alloca i32, align 4
  %7 = alloca ptr, align 8
  %8 = alloca ptr, align 8
  %9 = alloca i32, align 4
  %10 = alloca i32, align 4
  %11 = alloca ptr, align 8
  %12 = alloca i32, align 4
  %13 = alloca i32, align 4
  %14 = alloca [16 x i64], align 16
  %15 = alloca i32, align 4
  store ptr %0, ptr %7, align 8, !tbaa !46
  store ptr %1, ptr %8, align 8, !tbaa !3
  store i32 %2, ptr %9, align 4, !tbaa !8
  store i32 %3, ptr %10, align 4, !tbaa !8
  store ptr %4, ptr %11, align 8, !tbaa !48
  call void @llvm.lifetime.start.p0(i64 4, ptr %12) #5
  call void @llvm.lifetime.start.p0(i64 4, ptr %13) #5
  store i32 0, ptr %13, align 4, !tbaa !8
  call void @llvm.lifetime.start.p0(i64 128, ptr %14) #5
  %16 = load i32, ptr %10, align 4, !tbaa !8
  %17 = icmp sle i32 %16, 5
  br i1 %17, label %18, label %19

18:                                               ; preds = %5
  store i32 1, ptr %6, align 4
  store i32 1, ptr %15, align 4
  br label %41

19:                                               ; preds = %5
  %20 = getelementptr inbounds [16 x i64], ptr %14, i64 0, i64 0
  %21 = load ptr, ptr %8, align 8, !tbaa !3
  %22 = load i32, ptr %9, align 4, !tbaa !8
  call void @If_Dec08Copy(ptr noundef %20, ptr noundef %21, i32 noundef %22)
  %23 = getelementptr inbounds [16 x i64], ptr %14, i64 0, i64 0
  %24 = load i32, ptr %10, align 4, !tbaa !8
  %25 = call i32 @If_Dec08Support(ptr noundef %23, i32 noundef %24)
  store i32 %25, ptr %12, align 4, !tbaa !8
  %26 = load i32, ptr %12, align 4, !tbaa !8
  %27 = icmp ne i32 %26, 0
  br i1 %27, label %28, label %32

28:                                               ; preds = %19
  %29 = load i32, ptr %12, align 4, !tbaa !8
  %30 = call i32 @If_DecSuppIsMinBase(i32 noundef %29)
  %31 = icmp ne i32 %30, 0
  br i1 %31, label %33, label %32

32:                                               ; preds = %28, %19
  store i32 0, ptr %6, align 4
  store i32 1, ptr %15, align 4
  br label %41

33:                                               ; preds = %28
  %34 = getelementptr inbounds [16 x i64], ptr %14, i64 0, i64 0
  %35 = load i32, ptr %10, align 4, !tbaa !8
  %36 = load i32, ptr %13, align 4, !tbaa !8
  %37 = call i32 @If_Dec08Perform(ptr noundef %34, i32 noundef %35, i32 noundef %36)
  %38 = icmp ne i32 %37, 0
  br i1 %38, label %39, label %40

39:                                               ; preds = %33
  store i32 1, ptr %6, align 4
  store i32 1, ptr %15, align 4
  br label %41

40:                                               ; preds = %33
  store i32 0, ptr %6, align 4
  store i32 1, ptr %15, align 4
  br label %41

41:                                               ; preds = %40, %39, %32, %18
  call void @llvm.lifetime.end.p0(i64 128, ptr %14) #5
  call void @llvm.lifetime.end.p0(i64 4, ptr %13) #5
  call void @llvm.lifetime.end.p0(i64 4, ptr %12) #5
  %42 = load i32, ptr %6, align 4
  ret i32 %42
}