; Function Attrs: nofree norecurse nosync nounwind memory(readwrite, inaccessiblemem: none) uwtable
define range(i32 0, 2) i32 @If_CutPerformCheck08(ptr noundef readnone captures(none) %0, ptr noundef readonly captures(none) %1, i32 noundef %2, i32 noundef %3, ptr noundef readnone captures(none) %4) local_unnamed_addr #5 {
  %6 = alloca [16 x i64], align 16
  call void @llvm.lifetime.start.p0(i64 128, ptr nonnull %6) #11
  %7 = icmp slt i32 %3, 6
  br i1 %7, label %If_Dec08Support.exit.thread, label %8

8:                                                ; preds = %5
  %9 = icmp slt i32 %2, 7
  %10 = add nsw i32 %2, -6
  %11 = shl nuw i32 1, %10
  %12 = select i1 %9, i32 1, i32 %11
  %13 = icmp sgt i32 %12, 0
  br i1 %13, label %.lr.ph.preheader.i, label %If_Dec08Copy.exit

.lr.ph.preheader.i:                               ; preds = %8
  %wide.trip.count.i = zext nneg i32 %12 to i64
  %14 = shl nuw nsw i64 %wide.trip.count.i, 3
  call void @llvm.memcpy.p0.p0.i64(ptr noundef nonnull align 16 dereferenceable(1) %6, ptr noundef nonnull align 8 dereferenceable(1) %1, i64 %14, i1 false), !tbaa !12
  br label %If_Dec08Copy.exit

If_Dec08Copy.exit:                                ; preds = %.lr.ph.preheader.i, %8
  %15 = add nsw i32 %3, -6
  %16 = shl nuw i32 1, %15
  %.fr39.i = freeze i32 %16
  %17 = icmp sgt i32 %.fr39.i, 0
  %wide.trip.count52.i.i = zext nneg i32 %.fr39.i to i64
  br i1 %17, label %.split.us.split.us.preheader.i, label %If_Dec08Support.exit.thread

.split.us.split.us.preheader.i:                   ; preds = %If_Dec08Copy.exit
  %wide.trip.count52.i = zext nneg i32 %3 to i64
  br label %.split.us.split.us.i

.split.us.split.us.i:                             ; preds = %If_Dec08HasVar.exit.thread.us.us.i, %.split.us.split.us.preheader.i
  %indvars.iv49.i = phi i64 [ 0, %.split.us.split.us.preheader.i ], [ %indvars.iv.next50.i, %If_Dec08HasVar.exit.thread.us.us.i ]
  %.021.us.us.i = phi i32 [ 0, %.split.us.split.us.preheader.i ], [ %51, %If_Dec08HasVar.exit.thread.us.us.i ]
  %18 = icmp samesign ult i64 %indvars.iv49.i, 6
  br i1 %18, label %.lr.ph.i.us.us.i, label %.preheader.lr.ph.i.us.us.i

.preheader.lr.ph.i.us.us.i:                       ; preds = %.split.us.split.us.i
  %19 = add nsw i64 %indvars.iv49.i, -6
  %20 = icmp eq i64 %19, 31
  %21 = trunc nsw i64 %19 to i32
  %22 = shl i32 2, %21
  %23 = sext i32 %22 to i64
  br i1 %20, label %If_Dec08HasVar.exit.us.us.i, label %.preheader.us.preheader.i.us.us.i

.preheader.us.preheader.i.us.us.i:                ; preds = %.preheader.lr.ph.i.us.us.i
  %24 = shl nuw i32 1, %21
  %25 = sext i32 %24 to i64
  %smax.i.us.us.i = tail call i32 @llvm.smax.i32(i32 %24, i32 1)
  %wide.trip.count.i.us.us.i = zext nneg i32 %smax.i.us.us.i to i64
  br label %.preheader.us.i.us.us.i

.preheader.us.i.us.us.i:                          ; preds = %._crit_edge.us.i.us.us.i, %.preheader.us.preheader.i.us.us.i
  %.02841.us.i.us.us.i = phi i32 [ %32, %._crit_edge.us.i.us.us.i ], [ 0, %.preheader.us.preheader.i.us.us.i ]
  %.03040.us.i.us.us.i = phi ptr [ %31, %._crit_edge.us.i.us.us.i ], [ %6, %.preheader.us.preheader.i.us.us.i ]
  %invariant.gep.i.us.us.i = getelementptr i64, ptr %.03040.us.i.us.us.i, i64 %25
  br label %26

26:                                               ; preds = %30, %.preheader.us.i.us.us.i
  %indvars.iv.i.us.us.i = phi i64 [ 0, %.preheader.us.i.us.us.i ], [ %indvars.iv.next.i.us.us.i, %30 ]
  %27 = getelementptr inbounds nuw i64, ptr %.03040.us.i.us.us.i, i64 %indvars.iv.i.us.us.i
  %28 = load i64, ptr %27, align 8, !tbaa !12
  %gep.i.us.us.i = getelementptr i64, ptr %invariant.gep.i.us.us.i, i64 %indvars.iv.i.us.us.i
  %29 = load i64, ptr %gep.i.us.us.i, align 8, !tbaa !12
  %.not.us.i.us.us.i = icmp eq i64 %28, %29
  br i1 %.not.us.i.us.us.i, label %30, label %If_Dec08HasVar.exit.thread14.us.us.loopexit.i

30:                                               ; preds = %26
  %indvars.iv.next.i.us.us.i = add nuw nsw i64 %indvars.iv.i.us.us.i, 1
  %exitcond.not.i.us.us.i = icmp eq i64 %indvars.iv.next.i.us.us.i, %wide.trip.count.i.us.us.i
  br i1 %exitcond.not.i.us.us.i, label %._crit_edge.us.i.us.us.i, label %26, !llvm.loop !45

._crit_edge.us.i.us.us.i:                         ; preds = %30
  %31 = getelementptr inbounds i64, ptr %.03040.us.i.us.us.i, i64 %23
  %32 = add nsw i32 %.02841.us.i.us.us.i, %22
  %33 = icmp slt i32 %32, %.fr39.i
  br i1 %33, label %.preheader.us.i.us.us.i, label %If_Dec08HasVar.exit.thread.us.us.i, !llvm.loop !46

If_Dec08HasVar.exit.us.us.i:                      ; preds = %.preheader.lr.ph.i.us.us.i
  %34 = trunc nuw nsw i64 %indvars.iv49.i to i32
  %35 = shl nuw nsw i32 1, %34
  %36 = or i32 %35, %.021.us.us.i
  br label %If_Dec08HasVar.exit.thread.us.us.i

.lr.ph.i.us.us.i:                                 ; preds = %.split.us.split.us.i
  %37 = trunc nuw nsw i64 %indvars.iv49.i to i32
  %38 = shl nuw nsw i32 1, %37
  %39 = getelementptr inbounds nuw [6 x i64], ptr @Truth6, i64 0, i64 %indvars.iv49.i
  %40 = load i64, ptr %39, align 8, !tbaa !12
  %41 = xor i64 %40, -1
  %42 = zext nneg i32 %38 to i64
  br label %43

43:                                               ; preds = %50, %.lr.ph.i.us.us.i
  %indvars.iv49.i.us.us.i = phi i64 [ 0, %.lr.ph.i.us.us.i ], [ %indvars.iv.next50.i.us.us.i, %50 ]
  %44 = getelementptr inbounds nuw i64, ptr %6, i64 %indvars.iv49.i.us.us.i
  %45 = load i64, ptr %44, align 8, !tbaa !12
  %46 = and i64 %45, %41
  %47 = and i64 %45, %40
  %48 = lshr i64 %47, %42
  %.not36.i.us.us.i = icmp eq i64 %46, %48
  br i1 %.not36.i.us.us.i, label %50, label %If_Dec08HasVar.exit.thread14.us.us.i

If_Dec08HasVar.exit.thread14.us.us.loopexit.i:    ; preds = %26
  %.pre.i = trunc nuw nsw i64 %indvars.iv49.i to i32
  %.pre54.i = shl nuw i32 1, %.pre.i
  br label %If_Dec08HasVar.exit.thread14.us.us.i

If_Dec08HasVar.exit.thread14.us.us.i:             ; preds = %43, %If_Dec08HasVar.exit.thread14.us.us.loopexit.i
  %.pre-phi55.i = phi i32 [ %.pre54.i, %If_Dec08HasVar.exit.thread14.us.us.loopexit.i ], [ %38, %43 ]
  %49 = or i32 %.pre-phi55.i, %.021.us.us.i
  br label %If_Dec08HasVar.exit.thread.us.us.i

50:                                               ; preds = %43
  %indvars.iv.next50.i.us.us.i = add nuw nsw i64 %indvars.iv49.i.us.us.i, 1
  %exitcond53.not.i.us.us.i = icmp eq i64 %indvars.iv.next50.i.us.us.i, %wide.trip.count52.i.i
  br i1 %exitcond53.not.i.us.us.i, label %If_Dec08HasVar.exit.thread.us.us.i, label %43, !llvm.loop !47

If_Dec08HasVar.exit.thread.us.us.i:               ; preds = %._crit_edge.us.i.us.us.i, %50, %If_Dec08HasVar.exit.thread14.us.us.i, %If_Dec08HasVar.exit.us.us.i
  %51 = phi i32 [ %36, %If_Dec08HasVar.exit.us.us.i ], [ %49, %If_Dec08HasVar.exit.thread14.us.us.i ], [ %.021.us.us.i, %50 ], [ %.021.us.us.i, %._crit_edge.us.i.us.us.i ]
  %indvars.iv.next50.i = add nuw nsw i64 %indvars.iv49.i, 1
  %exitcond53.not.i = icmp eq i64 %indvars.iv.next50.i, %wide.trip.count52.i
  br i1 %exitcond53.not.i, label %If_Dec08Support.exit, label %.split.us.split.us.i, !llvm.loop !48

If_Dec08Support.exit:                             ; preds = %If_Dec08HasVar.exit.thread.us.us.i
  %.not = icmp eq i32 %51, 0
  br i1 %.not, label %If_Dec08Support.exit.thread, label %52

52:                                               ; preds = %If_Dec08Support.exit
  %53 = add nsw i32 %51, 1
  %54 = and i32 %53, %51
  %.not14 = icmp eq i32 %54, 0
  br i1 %.not14, label %55, label %If_Dec08Support.exit.thread

55:                                               ; preds = %52
  %56 = call i32 @If_Dec08Perform(ptr noundef nonnull %6, i32 noundef %3, i32 poison)
  br label %If_Dec08Support.exit.thread

If_Dec08Support.exit.thread:                      ; preds = %If_Dec08Copy.exit, %55, %If_Dec08Support.exit, %52, %5
  %.0 = phi i32 [ 1, %5 ], [ 0, %52 ], [ 0, %If_Dec08Support.exit ], [ %56, %55 ], [ 0, %If_Dec08Copy.exit ]
  call void @llvm.lifetime.end.p0(i64 128, ptr nonnull %6) #11
  ret i32 %.0
}